; ModuleID = '50/236.c'
source_filename = "50/236.c"
target datalayout = "e-m:e-p270:32:32-p271:32:32-p272:64:64-i64:64-f80:128-n8:16:32:64-S128"
target triple = "x86_64-pc-linux-gnu"

@.str = private unnamed_addr constant [3 x i8] c"%d\00", align 1
@w = common dso_local global i32 0, align 4
@.str.1 = private unnamed_addr constant [4 x i8] c"%d\0A\00", align 1

; Function Attrs: noinline nounwind uwtable
define dso_local void @main() #0 {
  %1 = alloca i32, align 4
  %2 = alloca i32, align 4
  %3 = call i32 (i8*, ...) @__isoc99_scanf(i8* getelementptr inbounds ([3 x i8], [3 x i8]* @.str, i64 0, i64 0), i32* @w)
  store i32 1, i32* %1, align 4
  store i32 13, i32* %2, align 4
  %4 = load i32, i32* %1, align 4
  %5 = load i32, i32* %2, align 4
  call void @judge(i32 %4, i32 %5)
  store i32 2, i32* %1, align 4
  store i32 44, i32* %2, align 4
  %6 = load i32, i32* %1, align 4
  %7 = load i32, i32* %2, align 4
  call void @judge(i32 %6, i32 %7)
  store i32 3, i32* %1, align 4
  store i32 72, i32* %2, align 4
  %8 = load i32, i32* %1, align 4
  %9 = load i32, i32* %2, align 4
  call void @judge(i32 %8, i32 %9)
  store i32 4, i32* %1, align 4
  store i32 103, i32* %2, align 4
  %10 = load i32, i32* %1, align 4
  %11 = load i32, i32* %2, align 4
  call void @judge(i32 %10, i32 %11)
  store i32 5, i32* %1, align 4
  store i32 133, i32* %2, align 4
  %12 = load i32, i32* %1, align 4
  %13 = load i32, i32* %2, align 4
  call void @judge(i32 %12, i32 %13)
  store i32 6, i32* %1, align 4
  store i32 164, i32* %2, align 4
  %14 = load i32, i32* %1, align 4
  %15 = load i32, i32* %2, align 4
  call void @judge(i32 %14, i32 %15)
  store i32 7, i32* %1, align 4
  store i32 194, i32* %2, align 4
  %16 = load i32, i32* %1, align 4
  %17 = load i32, i32* %2, align 4
  call void @judge(i32 %16, i32 %17)
  store i32 8, i32* %1, align 4
  store i32 225, i32* %2, align 4
  %18 = load i32, i32* %1, align 4
  %19 = load i32, i32* %2, align 4
  call void @judge(i32 %18, i32 %19)
  store i32 9, i32* %1, align 4
  store i32 256, i32* %2, align 4
  %20 = load i32, i32* %1, align 4
  %21 = load i32, i32* %2, align 4
  call void @judge(i32 %20, i32 %21)
  store i32 10, i32* %1, align 4
  store i32 286, i32* %2, align 4
  %22 = load i32, i32* %1, align 4
  %23 = load i32, i32* %2, align 4
  call void @judge(i32 %22, i32 %23)
  store i32 11, i32* %1, align 4
  store i32 317, i32* %2, align 4
  %24 = load i32, i32* %1, align 4
  %25 = load i32, i32* %2, align 4
  call void @judge(i32 %24, i32 %25)
  store i32 12, i32* %1, align 4
  store i32 347, i32* %2, align 4
  %26 = load i32, i32* %1, align 4
  %27 = load i32, i32* %2, align 4
  call void @judge(i32 %26, i32 %27)
  ret void
}

declare dso_local i32 @__isoc99_scanf(i8*, ...) #1

; Function Attrs: noinline nounwind uwtable
define dso_local void @judge(i32 %0, i32 %1) #0 {
  %3 = alloca i32, align 4
  %4 = alloca i32, align 4
  %5 = alloca i32, align 4
  store i32 %0, i32* %3, align 4
  store i32 %1, i32* %4, align 4
  %6 = load i32, i32* @w, align 4
  %7 = load i32, i32* %4, align 4
  %8 = add nsw i32 %6, %7
  %9 = sub nsw i32 %8, 1
  %10 = srem i32 %9, 7
  store i32 %10, i32* %5, align 4
  %11 = load i32, i32* %5, align 4
  %12 = icmp eq i32 %11, 5
  br i1 %12, label %13, label %16

13:                                               ; preds = %2
  %14 = load i32, i32* %3, align 4
  %15 = call i32 (i8*, ...) @printf(i8* getelementptr inbounds ([4 x i8], [4 x i8]* @.str.1, i64 0, i64 0), i32 %14)
  br label %16

16:                                               ; preds = %13, %2
  ret void
}

declare dso_local i32 @printf(i8*, ...) #1


!llvm.module.flags = !{!0}
!llvm.ident = !{!1}

!0 = !{i32 1, !"wchar_size", i32 4}
!1 = !{!"clang version 10.0.0-4ubuntu1 "}
